; Function Attrs: mustprogress nofree nounwind memory(readwrite, inaccessiblemem: write) uwtable
define void @_ZN23colvarproxy_atom_groups37compute_max_atom_groups_applied_forceEv(ptr noundef nonnull align 8 captures(none) dereferenceable(192) %0) local_unnamed_addr #19 align 2 {
  %2 = getelementptr inbounds nuw i8, ptr %0, i64 152
  %3 = load ptr, ptr %2, align 8, !tbaa !136
  %4 = getelementptr inbounds nuw i8, ptr %0, i64 160
  %5 = load ptr, ptr %4, align 8, !tbaa !136
  %.not10.i = icmp eq ptr %3, %5
  br i1 %.not10.i, label %_Z19compute_norm2_statsIN12colvarmodule7rvectorELi1ELb0EEdRKSt6vectorIT_SaIS3_EEPi.exit, label %.lr.ph.i

.lr.ph.i:                                         ; preds = %1, %.lr.ph.i
  %.012.i = phi double [ %.1.i, %.lr.ph.i ], [ 0.000000e+00, %1 ]
  %.sroa.06.011.i = phi ptr [ %15, %.lr.ph.i ], [ %3, %1 ]
  %6 = load double, ptr %.sroa.06.011.i, align 8, !tbaa !137
  %7 = getelementptr inbounds nuw i8, ptr %.sroa.06.011.i, i64 8
  %8 = load double, ptr %7, align 8, !tbaa !138
  %9 = fmul double %8, %8
  %10 = tail call double @llvm.fmuladd.f64(double %6, double %6, double %9)
  %11 = getelementptr inbounds nuw i8, ptr %.sroa.06.011.i, i64 16
  %12 = load double, ptr %11, align 8, !tbaa !139
  %13 = tail call noundef double @llvm.fmuladd.f64(double %12, double %12, double %10)
  %14 = fcmp ogt double %13, %.012.i
  %.1.i = select i1 %14, double %13, double %.012.i
  %15 = getelementptr inbounds nuw i8, ptr %.sroa.06.011.i, i64 24
  %.not.i = icmp eq ptr %15, %5
  br i1 %.not.i, label %_Z19compute_norm2_statsIN12colvarmodule7rvectorELi1ELb0EEdRKSt6vectorIT_SaIS3_EEPi.exit, label %.lr.ph.i, !llvm.loop !144

_Z19compute_norm2_statsIN12colvarmodule7rvectorELi1ELb0EEdRKSt6vectorIT_SaIS3_EEPi.exit: ; preds = %.lr.ph.i, %1
  %.0.lcssa.i = phi double [ 0.000000e+00, %1 ], [ %.1.i, %.lr.ph.i ]
  %16 = tail call noundef double @sqrt(double noundef %.0.lcssa.i) #24, !tbaa !33
  %17 = getelementptr inbounds nuw i8, ptr %0, i64 184
  store double %16, ptr %17, align 8, !tbaa !159
  ret void
}